target datalayout = "e-m:e-p270:32:32-p271:32:32-p272:64:64-i64:64-i128:128-f80:128-n8:16:32:64-S128"
target triple = "x86_64-pc-linux-gnu"

%struct.If_Obj_t_ = type { i32, i32, i32, i32, i32, i32, ptr, ptr, ptr, float, float, float, %union.anon, ptr, %struct.If_Cut_t_ }
%union.anon = type { ptr }
%struct.If_Cut_t_ = type <{ float, float, float, float, i32, i32, i32, i64, [0 x i32] }>
%struct.Vec_Ptr_t_ = type { i32, i32, ptr }

; Function Attrs: inlinehint nounwind uwtable
define internal void @Vec_PtrGrow(ptr noundef %0, i32 noundef %1) #2 {
  %3 = alloca ptr, align 8
  %4 = alloca i32, align 4
  store ptr %0, ptr %3, align 8, !tbaa !10
  store i32 %1, ptr %4, align 4, !tbaa !23
  %5 = load ptr, ptr %3, align 8, !tbaa !10
  %6 = getelementptr inbounds nuw %struct.Vec_Ptr_t_, ptr %5, i32 0, i32 0
  %7 = load i32, ptr %6, align 8, !tbaa !27
  %8 = load i32, ptr %4, align 4, !tbaa !23
  %9 = icmp sge i32 %7, %8
  br i1 %9, label %10, label %11

10:                                               ; preds = %2
  br label %36

11:                                               ; preds = %2
  %12 = load ptr, ptr %3, align 8, !tbaa !10
  %13 = getelementptr inbounds nuw %struct.Vec_Ptr_t_, ptr %12, i32 0, i32 2
  %14 = load ptr, ptr %13, align 8, !tbaa !28
  %15 = icmp ne ptr %14, null
  br i1 %15, label %16, label %24

16:                                               ; preds = %11
  %17 = load ptr, ptr %3, align 8, !tbaa !10
  %18 = getelementptr inbounds nuw %struct.Vec_Ptr_t_, ptr %17, i32 0, i32 2
  %19 = load ptr, ptr %18, align 8, !tbaa !28
  %20 = load i32, ptr %4, align 4, !tbaa !23
  %21 = sext i32 %20 to i64
  %22 = mul i64 8, %21
  %23 = call ptr @realloc(ptr noundef %19, i64 noundef %22) #12
  br label %29

24:                                               ; preds = %11
  %25 = load i32, ptr %4, align 4, !tbaa !23
  %26 = sext i32 %25 to i64
  %27 = mul i64 8, %26
  %28 = call noalias ptr @malloc(i64 noundef %27) #11
  br label %29

29:                                               ; preds = %24, %16
  %30 = phi ptr [ %23, %16 ], [ %28, %24 ]
  %31 = load ptr, ptr %3, align 8, !tbaa !10
  %32 = getelementptr inbounds nuw %struct.Vec_Ptr_t_, ptr %31, i32 0, i32 2
  store ptr %30, ptr %32, align 8, !tbaa !28
  %33 = load i32, ptr %4, align 4, !tbaa !23
  %34 = load ptr, ptr %3, align 8, !tbaa !10
  %35 = getelementptr inbounds nuw %struct.Vec_Ptr_t_, ptr %34, i32 0, i32 0
  store i32 %33, ptr %35, align 8, !tbaa !27
  br label %36

36:                                               ; preds = %29, %10
  ret void
}

; Function Attrs: inlinehint nounwind uwtable
define internal i32 @If_ObjIsCi(ptr noundef %0) #2 {
  %2 = alloca ptr, align 8
  store ptr %0, ptr %2, align 8, !tbaa !8
  %3 = load ptr, ptr %2, align 8, !tbaa !8
  %4 = load i32, ptr %3, align 8
  %5 = and i32 %4, 15
  %6 = icmp eq i32 %5, 2
  %7 = zext i1 %6 to i32
  ret i32 %7
}

; Function Attrs: inlinehint nounwind uwtable
define internal void @If_CutSetDataInt(ptr noundef %0, i32 noundef %1) #2 {
  %3 = alloca ptr, align 8
  %4 = alloca i32, align 4
  store ptr %0, ptr %3, align 8, !tbaa !12
  store i32 %1, ptr %4, align 4, !tbaa !23
  %5 = load i32, ptr %4, align 4, !tbaa !23
  %6 = load ptr, ptr %3, align 8, !tbaa !12
  store i32 %5, ptr %6, align 4, !tbaa !23
  ret void
}

; Function Attrs: inlinehint nounwind uwtable
define internal void @Vec_PtrPush(ptr noundef %0, ptr noundef %1) #2 {
  %3 = alloca ptr, align 8
  %4 = alloca ptr, align 8
  store ptr %0, ptr %3, align 8, !tbaa !10
  store ptr %1, ptr %4, align 8, !tbaa !24
  %5 = load ptr, ptr %3, align 8, !tbaa !10
  %6 = getelementptr inbounds nuw %struct.Vec_Ptr_t_, ptr %5, i32 0, i32 1
  %7 = load i32, ptr %6, align 4, !tbaa !25
  %8 = load ptr, ptr %3, align 8, !tbaa !10
  %9 = getelementptr inbounds nuw %struct.Vec_Ptr_t_, ptr %8, i32 0, i32 0
  %10 = load i32, ptr %9, align 8, !tbaa !27
  %11 = icmp eq i32 %7, %10
  br i1 %11, label %12, label %26

12:                                               ; preds = %2
  %13 = load ptr, ptr %3, align 8, !tbaa !10
  %14 = getelementptr inbounds nuw %struct.Vec_Ptr_t_, ptr %13, i32 0, i32 0
  %15 = load i32, ptr %14, align 8, !tbaa !27
  %16 = icmp slt i32 %15, 16
  br i1 %16, label %17, label %19

17:                                               ; preds = %12
  %18 = load ptr, ptr %3, align 8, !tbaa !10
  call void @Vec_PtrGrow(ptr noundef %18, i32 noundef 16)
  br label %25

19:                                               ; preds = %12
  %20 = load ptr, ptr %3, align 8, !tbaa !10
  %21 = load ptr, ptr %3, align 8, !tbaa !10
  %22 = getelementptr inbounds nuw %struct.Vec_Ptr_t_, ptr %21, i32 0, i32 0
  %23 = load i32, ptr %22, align 8, !tbaa !27
  %24 = mul nsw i32 2, %23
  call void @Vec_PtrGrow(ptr noundef %20, i32 noundef %24)
  br label %25

25:                                               ; preds = %19, %17
  br label %26

26:                                               ; preds = %25, %2
  %27 = load ptr, ptr %4, align 8, !tbaa !24
  %28 = load ptr, ptr %3, align 8, !tbaa !10
  %29 = getelementptr inbounds nuw %struct.Vec_Ptr_t_, ptr %28, i32 0, i32 2
  %30 = load ptr, ptr %29, align 8, !tbaa !28
  %31 = load ptr, ptr %3, align 8, !tbaa !10
  %32 = getelementptr inbounds nuw %struct.Vec_Ptr_t_, ptr %31, i32 0, i32 1
  %33 = load i32, ptr %32, align 4, !tbaa !25
  %34 = add nsw i32 %33, 1
  store i32 %34, ptr %32, align 4, !tbaa !25
  %35 = sext i32 %33 to i64
  %36 = getelementptr inbounds ptr, ptr %30, i64 %35
  store ptr %27, ptr %36, align 8, !tbaa !24
  ret void
}

; Function Attrs: inlinehint nounwind uwtable
define internal i32 @If_CutDataInt(ptr noundef %0) #2 {
  %2 = alloca ptr, align 8
  store ptr %0, ptr %2, align 8, !tbaa !12
  %3 = load ptr, ptr %2, align 8, !tbaa !12
  %4 = load i32, ptr %3, align 4, !tbaa !23
  ret i32 %4
}

; Function Attrs: inlinehint nounwind uwtable
define internal ptr @If_ObjCutBest(ptr noundef %0) #2 {
  %2 = alloca ptr, align 8
  store ptr %0, ptr %2, align 8, !tbaa !8
  %3 = load ptr, ptr %2, align 8, !tbaa !8
  %4 = getelementptr inbounds nuw %struct.If_Obj_t_, ptr %3, i32 0, i32 14
  ret ptr %4
}

; Function Attrs: nounwind uwtable
define i32 @If_ManConeCollect_rec(ptr noundef %0, ptr noundef %1, ptr noundef %2, ptr noundef %3) #0 {
  %5 = alloca i32, align 4
  %6 = alloca ptr, align 8
  %7 = alloca ptr, align 8
  %8 = alloca ptr, align 8
  %9 = alloca ptr, align 8
  %10 = alloca ptr, align 8
  %11 = alloca ptr, align 8
  %12 = alloca i32, align 4
  %13 = alloca i32, align 4
  %14 = alloca i32, align 4
  %15 = alloca i32, align 4
  %16 = alloca i32, align 4
  store ptr %0, ptr %6, align 8, !tbaa !3
  store ptr %1, ptr %7, align 8, !tbaa !8
  store ptr %2, ptr %8, align 8, !tbaa !10
  store ptr %3, ptr %9, align 8, !tbaa !10
  call void @llvm.lifetime.start.p0(i64 8, ptr %10) #9
  call void @llvm.lifetime.start.p0(i64 8, ptr %11) #9
  call void @llvm.lifetime.start.p0(i64 4, ptr %12) #9
  call void @llvm.lifetime.start.p0(i64 4, ptr %13) #9
  call void @llvm.lifetime.start.p0(i64 4, ptr %14) #9
  store i32 0, ptr %14, align 4, !tbaa !23
  call void @llvm.lifetime.start.p0(i64 4, ptr %15) #9
  store i32 0, ptr %15, align 4, !tbaa !23
  %17 = load ptr, ptr %7, align 8, !tbaa !8
  %18 = call ptr @If_ObjCutBest(ptr noundef %17)
  store ptr %18, ptr %10, align 8, !tbaa !12
  %19 = load ptr, ptr %10, align 8, !tbaa !12
  %20 = call i32 @If_CutDataInt(ptr noundef %19)
  %21 = icmp ne i32 %20, 0
  br i1 %21, label %22, label %25

22:                                               ; preds = %4
  %23 = load ptr, ptr %10, align 8, !tbaa !12
  %24 = call i32 @If_CutDataInt(ptr noundef %23)
  store i32 %24, ptr %5, align 4
  store i32 1, ptr %16, align 4
  br label %90

25:                                               ; preds = %4
  %26 = load ptr, ptr %8, align 8, !tbaa !10
  %27 = load ptr, ptr %10, align 8, !tbaa !12
  call void @Vec_PtrPush(ptr noundef %26, ptr noundef %27)
  %28 = load ptr, ptr %10, align 8, !tbaa !12
  call void @If_CutSetDataInt(ptr noundef %28, i32 noundef -1)
  %29 = load ptr, ptr %7, align 8, !tbaa !8
  %30 = call i32 @If_ObjIsCi(ptr noundef %29)
  %31 = icmp ne i32 %30, 0
  br i1 %31, label %32, label %35

32:                                               ; preds = %25
  %33 = load ptr, ptr %10, align 8, !tbaa !12
  %34 = call i32 @If_CutDataInt(ptr noundef %33)
  store i32 %34, ptr %5, align 4
  store i32 1, ptr %16, align 4
  br label %90

35:                                               ; preds = %25
  %36 = load ptr, ptr %7, align 8, !tbaa !8
  store ptr %36, ptr %11, align 8, !tbaa !8
  br label %37

37:                                               ; preds = %74, %35
  %38 = load ptr, ptr %11, align 8, !tbaa !8
  %39 = icmp ne ptr %38, null
  br i1 %39, label %40, label %78

40:                                               ; preds = %37
  %41 = load ptr, ptr %6, align 8, !tbaa !3
  %42 = load ptr, ptr %11, align 8, !tbaa !8
  %43 = getelementptr inbounds nuw %struct.If_Obj_t_, ptr %42, i32 0, i32 6
  %44 = load ptr, ptr %43, align 8, !tbaa !20
  %45 = load ptr, ptr %8, align 8, !tbaa !10
  %46 = load ptr, ptr %9, align 8, !tbaa !10
  %47 = call i32 @If_ManConeCollect_rec(ptr noundef %41, ptr noundef %44, ptr noundef %45, ptr noundef %46)
  store i32 %47, ptr %12, align 4, !tbaa !23
  %48 = load i32, ptr %12, align 4, !tbaa !23
  %49 = icmp eq i32 %48, -1
  br i1 %49, label %50, label %51

50:                                               ; preds = %40
  br label %74

51:                                               ; preds = %40
  %52 = load ptr, ptr %6, align 8, !tbaa !3
  %53 = load ptr, ptr %11, align 8, !tbaa !8
  %54 = getelementptr inbounds nuw %struct.If_Obj_t_, ptr %53, i32 0, i32 7
  %55 = load ptr, ptr %54, align 8, !tbaa !21
  %56 = load ptr, ptr %8, align 8, !tbaa !10
  %57 = load ptr, ptr %9, align 8, !tbaa !10
  %58 = call i32 @If_ManConeCollect_rec(ptr noundef %52, ptr noundef %55, ptr noundef %56, ptr noundef %57)
  store i32 %58, ptr %13, align 4, !tbaa !23
  %59 = load i32, ptr %13, align 4, !tbaa !23
  %60 = icmp eq i32 %59, -1
  br i1 %60, label %61, label %62

61:                                               ; preds = %51
  br label %74

62:                                               ; preds = %51
  store i32 1, ptr %15, align 4, !tbaa !23
  %63 = load ptr, ptr %10, align 8, !tbaa !12
  call void @If_CutSetDataInt(ptr noundef %63, i32 noundef 1)
  %64 = load ptr, ptr %9, align 8, !tbaa !10
  %65 = load ptr, ptr %11, align 8, !tbaa !8
  call void @Vec_PtrPush(ptr noundef %64, ptr noundef %65)
  %66 = load i32, ptr %14, align 4, !tbaa !23
  %67 = icmp eq i32 %66, 0
  br i1 %67, label %68, label %73

68:                                               ; preds = %62
  %69 = load ptr, ptr %11, align 8, !tbaa !8
  %70 = load ptr, ptr %7, align 8, !tbaa !8
  %71 = icmp eq ptr %69, %70
  br i1 %71, label %72, label %73

72:                                               ; preds = %68
  store i32 1, ptr %14, align 4, !tbaa !23
  br label %73

73:                                               ; preds = %72, %68, %62
  br label %74

74:                                               ; preds = %73, %61, %50
  %75 = load ptr, ptr %11, align 8, !tbaa !8
  %76 = getelementptr inbounds nuw %struct.If_Obj_t_, ptr %75, i32 0, i32 8
  %77 = load ptr, ptr %76, align 8, !tbaa !14
  store ptr %77, ptr %11, align 8, !tbaa !8
  br label %37, !llvm.loop !63

78:                                               ; preds = %37
  %79 = load i32, ptr %15, align 4, !tbaa !23
  %80 = icmp ne i32 %79, 0
  br i1 %80, label %81, label %87

81:                                               ; preds = %78
  %82 = load i32, ptr %14, align 4, !tbaa !23
  %83 = icmp ne i32 %82, 0
  br i1 %83, label %87, label %84

84:                                               ; preds = %81
  %85 = load ptr, ptr %9, align 8, !tbaa !10
  %86 = load ptr, ptr %7, align 8, !tbaa !8
  call void @Vec_PtrPush(ptr noundef %85, ptr noundef %86)
  br label %87

87:                                               ; preds = %84, %81, %78
  %88 = load ptr, ptr %10, align 8, !tbaa !12
  %89 = call i32 @If_CutDataInt(ptr noundef %88)
  store i32 %89, ptr %5, align 4
  store i32 1, ptr %16, align 4
  br label %90

90:                                               ; preds = %87, %32, %22
  call void @llvm.lifetime.end.p0(i64 4, ptr %15) #9
  call void @llvm.lifetime.end.p0(i64 4, ptr %14) #9
  call void @llvm.lifetime.end.p0(i64 4, ptr %13) #9
  call void @llvm.lifetime.end.p0(i64 4, ptr %12) #9
  call void @llvm.lifetime.end.p0(i64 8, ptr %11) #9
  call void @llvm.lifetime.end.p0(i64 8, ptr %10) #9
  %91 = load i32, ptr %5, align 4
  ret i32 %91
}