; Function Attrs: nounwind uwtable
define i32 @If_ManConeCollect_rec(ptr noundef %0, ptr noundef %1, ptr noundef %2, ptr noundef %3) local_unnamed_addr #0 {
  %5 = getelementptr inbounds nuw i8, ptr %1, i64 80
  %.val41 = load i32, ptr %5, align 4, !tbaa !3
  %.not = icmp eq i32 %.val41, 0
  br i1 %.not, label %6, label %118

6:                                                ; preds = %4
  %7 = getelementptr inbounds nuw i8, ptr %2, i64 4
  %8 = load i32, ptr %7, align 4, !tbaa !7
  %9 = load i32, ptr %2, align 8, !tbaa !10
  %10 = icmp eq i32 %8, %9
  br i1 %10, label %11, label %.Vec_PtrGrow.exit11_crit_edge.i

.Vec_PtrGrow.exit11_crit_edge.i:                  ; preds = %6
  %.phi.trans.insert.i = getelementptr inbounds nuw i8, ptr %2, i64 8
  %.pre.i = load ptr, ptr %.phi.trans.insert.i, align 8, !tbaa !11
  br label %Vec_PtrPush.exit

11:                                               ; preds = %6
  %12 = icmp slt i32 %8, 16
  br i1 %12, label %13, label %21

13:                                               ; preds = %11
  %14 = getelementptr inbounds nuw i8, ptr %2, i64 8
  %15 = load ptr, ptr %14, align 8, !tbaa !11
  %.not9.i.i = icmp eq ptr %15, null
  br i1 %.not9.i.i, label %18, label %16

16:                                               ; preds = %13
  %17 = tail call dereferenceable_or_null(128) ptr @realloc(ptr noundef nonnull %15, i64 noundef 128) #13
  br label %Vec_PtrGrow.exit.i

18:                                               ; preds = %13
  %19 = tail call noalias dereferenceable_or_null(128) ptr @malloc(i64 noundef 128) #14
  br label %Vec_PtrGrow.exit.i

Vec_PtrGrow.exit.i:                               ; preds = %18, %16
  %20 = phi ptr [ %17, %16 ], [ %19, %18 ]
  store ptr %20, ptr %14, align 8, !tbaa !11
  store i32 16, ptr %2, align 8, !tbaa !10
  br label %Vec_PtrPush.exit

21:                                               ; preds = %11
  %22 = shl nuw nsw i32 %8, 1
  %23 = getelementptr inbounds nuw i8, ptr %2, i64 8
  %24 = load ptr, ptr %23, align 8, !tbaa !11
  %.not9.i10.i = icmp eq ptr %24, null
  %25 = zext nneg i32 %22 to i64
  %26 = shl nuw nsw i64 %25, 3
  br i1 %.not9.i10.i, label %29, label %27

27:                                               ; preds = %21
  %28 = tail call ptr @realloc(ptr noundef nonnull %24, i64 noundef %26) #13
  br label %31

29:                                               ; preds = %21
  %30 = tail call noalias ptr @malloc(i64 noundef %26) #14
  br label %31

31:                                               ; preds = %29, %27
  %32 = phi ptr [ %28, %27 ], [ %30, %29 ]
  store ptr %32, ptr %23, align 8, !tbaa !11
  store i32 %22, ptr %2, align 8, !tbaa !10
  br label %Vec_PtrPush.exit

Vec_PtrPush.exit:                                 ; preds = %.Vec_PtrGrow.exit11_crit_edge.i, %Vec_PtrGrow.exit.i, %31
  %33 = phi ptr [ %.pre.i, %.Vec_PtrGrow.exit11_crit_edge.i ], [ %32, %31 ], [ %20, %Vec_PtrGrow.exit.i ]
  %34 = load i32, ptr %7, align 4, !tbaa !7
  %35 = add nsw i32 %34, 1
  store i32 %35, ptr %7, align 4, !tbaa !7
  %36 = sext i32 %34 to i64
  %37 = getelementptr inbounds ptr, ptr %33, i64 %36
  store ptr %5, ptr %37, align 8, !tbaa !12
  store i32 -1, ptr %5, align 4, !tbaa !3
  %.val42 = load i32, ptr %1, align 8
  %38 = and i32 %.val42, 15
  %.not57 = icmp eq i32 %38, 2
  br i1 %.not57, label %118, label %.preheader

.preheader:                                       ; preds = %Vec_PtrPush.exit
  %39 = getelementptr inbounds nuw i8, ptr %3, i64 4
  %.phi.trans.insert.i44 = getelementptr inbounds nuw i8, ptr %3, i64 8
  br label %40

40:                                               ; preds = %.preheader, %82
  %.060 = phi i32 [ 0, %.preheader ], [ %.1, %82 ]
  %.03359 = phi i32 [ 0, %.preheader ], [ %.134, %82 ]
  %.03658 = phi ptr [ %1, %.preheader ], [ %84, %82 ]
  %41 = getelementptr inbounds nuw i8, ptr %.03658, i64 24
  %42 = load ptr, ptr %41, align 8, !tbaa !19
  %43 = tail call i32 @If_ManConeCollect_rec(ptr noundef %0, ptr noundef %42, ptr noundef nonnull %2, ptr noundef %3)
  %44 = icmp eq i32 %43, -1
  br i1 %44, label %82, label %45

45:                                               ; preds = %40
  %46 = getelementptr inbounds nuw i8, ptr %.03658, i64 32
  %47 = load ptr, ptr %46, align 8, !tbaa !20
  %48 = tail call i32 @If_ManConeCollect_rec(ptr noundef %0, ptr noundef %47, ptr noundef nonnull %2, ptr noundef %3)
  %49 = icmp eq i32 %48, -1
  br i1 %49, label %82, label %50

50:                                               ; preds = %45
  store i32 1, ptr %5, align 4, !tbaa !3
  %51 = load i32, ptr %39, align 4, !tbaa !7
  %52 = load i32, ptr %3, align 8, !tbaa !10
  %53 = icmp eq i32 %51, %52
  br i1 %53, label %54, label %.Vec_PtrGrow.exit11_crit_edge.i43

.Vec_PtrGrow.exit11_crit_edge.i43:                ; preds = %50
  %.pre.i45 = load ptr, ptr %.phi.trans.insert.i44, align 8, !tbaa !11
  br label %Vec_PtrPush.exit49

54:                                               ; preds = %50
  %55 = icmp slt i32 %51, 16
  br i1 %55, label %56, label %63

56:                                               ; preds = %54
  %57 = load ptr, ptr %.phi.trans.insert.i44, align 8, !tbaa !11
  %.not9.i.i47 = icmp eq ptr %57, null
  br i1 %.not9.i.i47, label %60, label %58

58:                                               ; preds = %56
  %59 = tail call dereferenceable_or_null(128) ptr @realloc(ptr noundef nonnull %57, i64 noundef 128) #13
  br label %Vec_PtrGrow.exit.i48

60:                                               ; preds = %56
  %61 = tail call noalias dereferenceable_or_null(128) ptr @malloc(i64 noundef 128) #14
  br label %Vec_PtrGrow.exit.i48

Vec_PtrGrow.exit.i48:                             ; preds = %60, %58
  %62 = phi ptr [ %59, %58 ], [ %61, %60 ]
  store ptr %62, ptr %.phi.trans.insert.i44, align 8, !tbaa !11
  store i32 16, ptr %3, align 8, !tbaa !10
  br label %Vec_PtrPush.exit49

63:                                               ; preds = %54
  %64 = shl nuw nsw i32 %51, 1
  %65 = load ptr, ptr %.phi.trans.insert.i44, align 8, !tbaa !11
  %.not9.i10.i46 = icmp eq ptr %65, null
  %66 = zext nneg i32 %64 to i64
  %67 = shl nuw nsw i64 %66, 3
  br i1 %.not9.i10.i46, label %70, label %68

68:                                               ; preds = %63
  %69 = tail call ptr @realloc(ptr noundef nonnull %65, i64 noundef %67) #13
  br label %72

70:                                               ; preds = %63
  %71 = tail call noalias ptr @malloc(i64 noundef %67) #14
  br label %72

72:                                               ; preds = %70, %68
  %73 = phi ptr [ %69, %68 ], [ %71, %70 ]
  store ptr %73, ptr %.phi.trans.insert.i44, align 8, !tbaa !11
  store i32 %64, ptr %3, align 8, !tbaa !10
  br label %Vec_PtrPush.exit49

Vec_PtrPush.exit49:                               ; preds = %.Vec_PtrGrow.exit11_crit_edge.i43, %Vec_PtrGrow.exit.i48, %72
  %74 = phi ptr [ %.pre.i45, %.Vec_PtrGrow.exit11_crit_edge.i43 ], [ %73, %72 ], [ %62, %Vec_PtrGrow.exit.i48 ]
  %75 = load i32, ptr %39, align 4, !tbaa !7
  %76 = add nsw i32 %75, 1
  store i32 %76, ptr %39, align 4, !tbaa !7
  %77 = sext i32 %75 to i64
  %78 = getelementptr inbounds ptr, ptr %74, i64 %77
  store ptr %.03658, ptr %78, align 8, !tbaa !12
  %79 = icmp eq i32 %.03359, 0
  br i1 %79, label %80, label %82

80:                                               ; preds = %Vec_PtrPush.exit49
  %81 = icmp eq ptr %.03658, %1
  %spec.select = zext i1 %81 to i32
  br label %82

82:                                               ; preds = %80, %Vec_PtrPush.exit49, %45, %40
  %.134 = phi i32 [ %.03359, %40 ], [ %.03359, %45 ], [ 1, %Vec_PtrPush.exit49 ], [ %spec.select, %80 ]
  %.1 = phi i32 [ %.060, %40 ], [ %.060, %45 ], [ 1, %Vec_PtrPush.exit49 ], [ 1, %80 ]
  %83 = getelementptr inbounds nuw i8, ptr %.03658, i64 40
  %84 = load ptr, ptr %83, align 8, !tbaa !13
  %.not38 = icmp eq ptr %84, null
  br i1 %.not38, label %85, label %40, !llvm.loop !58

85:                                               ; preds = %82
  %86 = icmp eq i32 %.1, 0
  %87 = icmp ne i32 %.134, 0
  %or.cond = select i1 %86, i1 true, i1 %87
  br i1 %or.cond, label %117, label %88

88:                                               ; preds = %85
  %89 = load i32, ptr %39, align 4, !tbaa !7
  %90 = load i32, ptr %3, align 8, !tbaa !10
  %91 = icmp eq i32 %89, %90
  br i1 %91, label %92, label %.Vec_PtrGrow.exit11_crit_edge.i50

.Vec_PtrGrow.exit11_crit_edge.i50:                ; preds = %88
  %.pre.i52 = load ptr, ptr %.phi.trans.insert.i44, align 8, !tbaa !11
  br label %Vec_PtrPush.exit56

92:                                               ; preds = %88
  %93 = icmp slt i32 %89, 16
  br i1 %93, label %94, label %101

94:                                               ; preds = %92
  %95 = load ptr, ptr %.phi.trans.insert.i44, align 8, !tbaa !11
  %.not9.i.i54 = icmp eq ptr %95, null
  br i1 %.not9.i.i54, label %98, label %96

96:                                               ; preds = %94
  %97 = tail call dereferenceable_or_null(128) ptr @realloc(ptr noundef nonnull %95, i64 noundef 128) #13
  br label %Vec_PtrGrow.exit.i55

98:                                               ; preds = %94
  %99 = tail call noalias dereferenceable_or_null(128) ptr @malloc(i64 noundef 128) #14
  br label %Vec_PtrGrow.exit.i55

Vec_PtrGrow.exit.i55:                             ; preds = %98, %96
  %100 = phi ptr [ %97, %96 ], [ %99, %98 ]
  store ptr %100, ptr %.phi.trans.insert.i44, align 8, !tbaa !11
  store i32 16, ptr %3, align 8, !tbaa !10
  br label %Vec_PtrPush.exit56

101:                                              ; preds = %92
  %102 = shl nuw nsw i32 %89, 1
  %103 = load ptr, ptr %.phi.trans.insert.i44, align 8, !tbaa !11
  %.not9.i10.i53 = icmp eq ptr %103, null
  %104 = zext nneg i32 %102 to i64
  %105 = shl nuw nsw i64 %104, 3
  br i1 %.not9.i10.i53, label %108, label %106

106:                                              ; preds = %101
  %107 = tail call ptr @realloc(ptr noundef nonnull %103, i64 noundef %105) #13
  br label %110

108:                                              ; preds = %101
  %109 = tail call noalias ptr @malloc(i64 noundef %105) #14
  br label %110

110:                                              ; preds = %108, %106
  %111 = phi ptr [ %107, %106 ], [ %109, %108 ]
  store ptr %111, ptr %.phi.trans.insert.i44, align 8, !tbaa !11
  store i32 %102, ptr %3, align 8, !tbaa !10
  br label %Vec_PtrPush.exit56

Vec_PtrPush.exit56:                               ; preds = %.Vec_PtrGrow.exit11_crit_edge.i50, %Vec_PtrGrow.exit.i55, %110
  %112 = phi ptr [ %.pre.i52, %.Vec_PtrGrow.exit11_crit_edge.i50 ], [ %111, %110 ], [ %100, %Vec_PtrGrow.exit.i55 ]
  %113 = load i32, ptr %39, align 4, !tbaa !7
  %114 = add nsw i32 %113, 1
  store i32 %114, ptr %39, align 4, !tbaa !7
  %115 = sext i32 %113 to i64
  %116 = getelementptr inbounds ptr, ptr %112, i64 %115
  store ptr %1, ptr %116, align 8, !tbaa !12
  br label %117

117:                                              ; preds = %Vec_PtrPush.exit56, %85
  %.val = load i32, ptr %5, align 4, !tbaa !3
  br label %118

118:                                              ; preds = %Vec_PtrPush.exit, %4, %117
  %.035 = phi i32 [ %.val, %117 ], [ %.val41, %4 ], [ -1, %Vec_PtrPush.exit ]
  ret i32 %.035
}